target datalayout = "e-m:e-p270:32:32-p271:32:32-p272:64:64-i64:64-i128:128-f80:128-n8:16:32:64-S128"
target triple = "x86_64-pc-linux-gnu"

%struct.FT_FaceRec_ = type { i64, i64, i64, i64, i64, ptr, ptr, i32, ptr, i32, ptr, %struct.FT_Generic_, %struct.FT_BBox_, i16, i16, i16, i16, i16, i16, i16, i16, ptr, ptr, ptr, ptr, ptr, ptr, %struct.FT_ListRec_, %struct.FT_Generic_, ptr, ptr }
%struct.FT_BBox_ = type { i64, i64, i64, i64 }
%struct.FT_ListRec_ = type { ptr, ptr }
%struct.FT_Generic_ = type { ptr, ptr }
%struct.AF_CJKMetricsRec_ = type { %struct.AF_StyleMetricsRec_, i32, [2 x %struct.AF_CJKAxisRec_] }
%struct.AF_StyleMetricsRec_ = type { ptr, %struct.AF_ScalerRec_, i8, ptr }
%struct.AF_ScalerRec_ = type { ptr, i64, i64, i64, i64, i32, i32 }
%struct.AF_CJKAxisRec_ = type { i64, i64, i32, [16 x %struct.AF_WidthRec_], i64, i64, i8, i8, i32, [8 x %struct.AF_CJKBlueRec_], i64, i64 }
%struct.AF_WidthRec_ = type { i64, i64, i64 }
%struct.AF_CJKBlueRec_ = type { %struct.AF_WidthRec_, %struct.AF_WidthRec_, i32 }

; Function Attrs: nounwind uwtable
define internal i32 @af_indic_metrics_init(ptr noundef %0, ptr noundef %1) #0 {
  %3 = alloca ptr, align 8
  %4 = alloca ptr, align 8
  %5 = alloca ptr, align 8
  %6 = alloca ptr, align 8
  store ptr %0, ptr %3, align 8, !tbaa !3
  store ptr %1, ptr %4, align 8, !tbaa !8
  call void @llvm.lifetime.start.p0(i64 8, ptr %5) #10
  %7 = load ptr, ptr %3, align 8, !tbaa !3
  store ptr %7, ptr %5, align 8, !tbaa !10
  call void @llvm.lifetime.start.p0(i64 8, ptr %6) #10
  %8 = load ptr, ptr %4, align 8, !tbaa !8
  %9 = getelementptr inbounds nuw %struct.FT_FaceRec_, ptr %8, i32 0, i32 23
  %10 = load ptr, ptr %9, align 8, !tbaa !12
  store ptr %10, ptr %6, align 8, !tbaa !31
  %11 = load ptr, ptr %4, align 8, !tbaa !8
  %12 = getelementptr inbounds nuw %struct.FT_FaceRec_, ptr %11, i32 0, i32 13
  %13 = load i16, ptr %12, align 8, !tbaa !32
  %14 = zext i16 %13 to i32
  %15 = load ptr, ptr %5, align 8, !tbaa !10
  %16 = getelementptr inbounds nuw %struct.AF_CJKMetricsRec_, ptr %15, i32 0, i32 1
  store i32 %14, ptr %16, align 8, !tbaa !33
  %17 = load ptr, ptr %4, align 8, !tbaa !8
  %18 = call i32 @FT_Select_Charmap(ptr noundef %17, i32 noundef 1970170211)
  %19 = icmp ne i32 %18, 0
  br i1 %19, label %20, label %23

20:                                               ; preds = %2
  %21 = load ptr, ptr %4, align 8, !tbaa !8
  %22 = getelementptr inbounds nuw %struct.FT_FaceRec_, ptr %21, i32 0, i32 23
  store ptr null, ptr %22, align 8, !tbaa !12
  br label %28

23:                                               ; preds = %2
  %24 = load ptr, ptr %5, align 8, !tbaa !10
  %25 = load ptr, ptr %4, align 8, !tbaa !8
  call void @af_cjk_metrics_init_widths(ptr noundef %24, ptr noundef %25)
  %26 = load ptr, ptr %5, align 8, !tbaa !10
  %27 = load ptr, ptr %4, align 8, !tbaa !8
  call void @af_cjk_metrics_check_digits(ptr noundef %26, ptr noundef %27)
  br label %28

28:                                               ; preds = %23, %20
  %29 = load ptr, ptr %6, align 8, !tbaa !31
  %30 = load ptr, ptr %4, align 8, !tbaa !8
  %31 = getelementptr inbounds nuw %struct.FT_FaceRec_, ptr %30, i32 0, i32 23
  store ptr %29, ptr %31, align 8, !tbaa !12
  call void @llvm.lifetime.end.p0(i64 8, ptr %6) #10
  call void @llvm.lifetime.end.p0(i64 8, ptr %5) #10
  ret i32 0
}