; Function Attrs: nounwind uwtable
define internal noundef i32 @af_indic_metrics_init(ptr noundef captures(none) initializes((72, 76)) %0, ptr noundef %1) #0 {
  %3 = getelementptr inbounds nuw i8, ptr %1, i64 168
  %4 = load ptr, ptr %3, align 8, !tbaa !3
  %5 = getelementptr inbounds nuw i8, ptr %1, i64 136
  %6 = load i16, ptr %5, align 8, !tbaa !25
  %7 = zext i16 %6 to i32
  %8 = getelementptr inbounds nuw i8, ptr %0, i64 72
  store i32 %7, ptr %8, align 8, !tbaa !26
  %9 = tail call i32 @FT_Select_Charmap(ptr noundef %1, i32 noundef 1970170211) #20
  %.not = icmp eq i32 %9, 0
  br i1 %.not, label %10, label %11

10:                                               ; preds = %2
  tail call fastcc void @af_cjk_metrics_init_widths(ptr noundef nonnull %0, ptr noundef nonnull %1)
  tail call fastcc void @af_cjk_metrics_check_digits(ptr noundef nonnull %0)
  br label %11

11:                                               ; preds = %2, %10
  store ptr %4, ptr %3, align 8, !tbaa !3
  ret i32 0
}